Certificate:
    Data:
        Version: 3 (0x2)
        Serial Number: 1 (0x1)
    Signature Algorithm: sha256WithRSAEncryption
        Issuer: C=PL, ST=SRAM, L=SRAM, O=SRAM, OU=SRAM, CN=SRAM/emailAddress=SRAM
        Validity
            Not Before: Mar 21 16:20:12 2020 GMT
            Not After : Mar 21 16:20:12 2021 GMT
        Subject: C=PL, ST=SRAM, O=SRAM, OU=SRAM, CN=SRAM/emailAddress=SRAM
        Subject Public Key Info:
            Public Key Algorithm: rsaEncryption
                Public-Key: (1024 bit)
                Modulus:
                    00:df:81:40:29:76:ed:fe:78:53:2d:29:a5:87:f5:
                    09:74:97:1e:f7:fc:65:84:0d:cd:b9:40:4d:78:00:
                    d6:71:f5:5d:e5:e9:3c:a4:67:60:47:c9:57:f8:81:
                    0e:fe:96:68:e0:f5:06:8d:61:73:84:a1:75:b1:d1:
                    07:0e:f1:a1:c3:36:a5:80:62:12:ed:d6:b3:6f:77:
                    c9:00:c5:00:6e:38:81:17:19:c0:59:3d:bb:0d:5f:
                    85:05:e1:03:62:85:46:e9:75:6e:ea:c2:c1:a4:00:
                    f5:0a:6e:8f:32:33:a3:b8:cc:83:3f:66:ea:6d:47:
                    b2:de:23:79:ed:e1:cf:d1:c7
                Exponent: 65537 (0x10001)
        X509v3 extensions:
            X509v3 Basic Constraints: 
                CA:FALSE
            Netscape Comment: 
                OpenSSL Generated Certificate
            X509v3 Subject Key Identifier: 
                60:0A:A6:97:26:7D:D8:4C:02:8A:9B:D7:78:E1:2C:E4:47:25:74:A3
            X509v3 Authority Key Identifier: 
                DirName:/C=PL/ST=SRAM/L=SRAM/O=SRAM/OU=SRAM/CN=SRAM/emailAddress=SRAM
                serial:8F:7B:01:FF:66:AE:D5:80

    Signature Algorithm: sha256WithRSAEncryption
         a2:79:60:1f:67:3e:6b:69:2a:1c:71:d6:3d:46:f3:b9:ad:55:
         22:b6:13:97:19:4a:12:d0:41:3c:71:f5:25:4d:67:ab:4e:4f:
         b7:ef:7e:66:48:75:10:6b:35:be:0d:b1:da:88:36:c5:b8:19:
         a9:3d:11:5d:a0:09:f4:e8:56:80:31:5a:d9:36:6a:a5:49:1b:
         36:4f:7f:62:33:dd:55:f4:43:94:20:32:33:ad:a3:1f:5d:b3:
         85:d6:a5:62:09:8b:73:3c:46:7a:c0:b9:62:b7:9a:99:06:5f:
         06:b0:d5:8c:b7:01:54:41:1c:b0:8a:25:72:89:4a:40:f5:56:
         5c:6a
-----BEGIN CERTIFICATE-----
MIIDKDCCApGgAwIBAgIBATANBgkqhkiG9w0BAQsFADBtMQswCQYDVQQGEwJQTDEN
MAsGA1UECAwEU1JBTTENMAsGA1UEBwwEU1JBTTENMAsGA1UECgwEU1JBTTENMAsG
A1UECwwEU1JBTTENMAsGA1UEAwwEU1JBTTETMBEGCSqGSIb3DQEJARYEU1JBTTAe
Fw0yMDAzMjExNjIwMTJaFw0yMTAzMjExNjIwMTJaMF4xCzAJBgNVBAYTAlBMMQ0w
CwYDVQQIDARTUkFNMQ0wCwYDVQQKDARTUkFNMQ0wCwYDVQQLDARTUkFNMQ0wCwYD
VQQDDARTUkFNMRMwEQYJKoZIhvcNAQkBFgRTUkFNMIGfMA0GCSqGSIb3DQEBAQUA
A4GNADCBiQKBgQDfgUApdu3+eFMtKaWH9Ql0lx73/GWEDc25QE14ANZx9V3l6Tyk
Z2BHyVf4gQ7+lmjg9QaNYXOEoXWx0QcO8aHDNqWAYhLt1rNvd8kAxQBuOIEXGcBZ
PbsNX4UF4QNihUbpdW7qwsGkAPUKbo8yM6O4zIM/ZuptR7LeI3nt4c/RxwIDAQAB
o4HmMIHjMAkGA1UdEwQCMAAwLAYJYIZIAYb4QgENBB8WHU9wZW5TU0wgR2VuZXJh
dGVkIENlcnRpZmljYXRlMB0GA1UdDgQWBBRgCqaXJn3YTAKKm9d44SzkRyV0ozCB
iAYDVR0jBIGAMH6hcaRvMG0xCzAJBgNVBAYTAlBMMQ0wCwYDVQQIDARTUkFNMQ0w
CwYDVQQHDARTUkFNMQ0wCwYDVQQKDARTUkFNMQ0wCwYDVQQLDARTUkFNMQ0wCwYD
VQQDDARTUkFNMRMwEQYJKoZIhvcNAQkBFgRTUkFNggkAj3sB/2au1YAwDQYJKoZI
hvcNAQELBQADgYEAonlgH2c+a2kqHHHWPUbzua1VIrYTlxlKEtBBPHH1JU1nq05P
t+9+Zkh1EGs1vg2x2og2xbgZqT0RXaAJ9OhWgDFa2TZqpUkbNk9/YjPdVfRDlCAy
M62jH12zhdalYgmLczxGesC5YreamQZfBrDVjLcBVEEcsIolcolKQPVWXGo=
-----END CERTIFICATE-----
